target datalayout = "e-m:e-p270:32:32-p271:32:32-p272:64:64-i64:64-i128:128-f80:128-n8:16:32:64-S128"
target triple = "x86_64-pc-linux-gnu"

%struct.decNumber = type { i32, i32, i8, [1 x i16] }
%struct.decContext = type { i32, i32, i32, i32, i32, i32, i8 }

@DECPOWERS = external constant [10 x i32], align 16

; Function Attrs: nounwind uwtable
define internal void @decStatus(ptr noundef %0, i32 noundef %1, ptr noundef %2) #0 {
  %4 = alloca ptr, align 8
  %5 = alloca i32, align 4
  %6 = alloca ptr, align 8
  store ptr %0, ptr %4, align 8, !tbaa !4
  store i32 %1, ptr %5, align 4, !tbaa !8
  store ptr %2, ptr %6, align 8, !tbaa !4
  %7 = load i32, ptr %5, align 4, !tbaa !8
  %8 = and i32 %7, 221
  %9 = icmp ne i32 %8, 0
  br i1 %9, label %10, label %23

10:                                               ; preds = %3
  %11 = load i32, ptr %5, align 4, !tbaa !8
  %12 = and i32 %11, 1073741824
  %13 = icmp ne i32 %12, 0
  br i1 %13, label %14, label %17

14:                                               ; preds = %10
  %15 = load i32, ptr %5, align 4, !tbaa !8
  %16 = and i32 %15, -1073741825
  store i32 %16, ptr %5, align 4, !tbaa !8
  br label %22

17:                                               ; preds = %10
  %18 = load ptr, ptr %4, align 8, !tbaa !4
  %19 = call ptr @decNumberZero(ptr noundef %18)
  %20 = load ptr, ptr %4, align 8, !tbaa !4
  %21 = getelementptr inbounds nuw %struct.decNumber, ptr %20, i32 0, i32 2
  store i8 32, ptr %21, align 4, !tbaa !10
  br label %22

22:                                               ; preds = %17, %14
  br label %23

23:                                               ; preds = %22, %3
  %24 = load ptr, ptr %6, align 8, !tbaa !4
  %25 = load i32, ptr %5, align 4, !tbaa !8
  %26 = call ptr @decContextSetStatus(ptr noundef %24, i32 noundef %25)
  ret void
}

; Function Attrs: nounwind uwtable
define dso_local ptr @decNumberZero(ptr noundef %0) #0 {
  %2 = alloca ptr, align 8
  store ptr %0, ptr %2, align 8, !tbaa !4
  %3 = load ptr, ptr %2, align 8, !tbaa !4
  %4 = getelementptr inbounds nuw %struct.decNumber, ptr %3, i32 0, i32 2
  store i8 0, ptr %4, align 4, !tbaa !10
  %5 = load ptr, ptr %2, align 8, !tbaa !4
  %6 = getelementptr inbounds nuw %struct.decNumber, ptr %5, i32 0, i32 1
  store i32 0, ptr %6, align 4, !tbaa !19
  %7 = load ptr, ptr %2, align 8, !tbaa !4
  %8 = getelementptr inbounds nuw %struct.decNumber, ptr %7, i32 0, i32 0
  store i32 1, ptr %8, align 4, !tbaa !18
  %9 = load ptr, ptr %2, align 8, !tbaa !4
  %10 = getelementptr inbounds nuw %struct.decNumber, ptr %9, i32 0, i32 3
  %11 = getelementptr inbounds [1 x i16], ptr %10, i64 0, i64 0
  store i16 0, ptr %11, align 2, !tbaa !14
  %12 = load ptr, ptr %2, align 8, !tbaa !4
  ret ptr %12
}

; Function Attrs: nounwind uwtable
define internal void @decSetMaxValue(ptr noundef %0, ptr noundef %1) #0 {
  %3 = alloca ptr, align 8
  %4 = alloca ptr, align 8
  %5 = alloca ptr, align 8
  %6 = alloca i32, align 4
  store ptr %0, ptr %3, align 8, !tbaa !4
  store ptr %1, ptr %4, align 8, !tbaa !4
  call void @llvm.lifetime.start.p0(i64 8, ptr %5) #7
  call void @llvm.lifetime.start.p0(i64 4, ptr %6) #7
  %7 = load ptr, ptr %4, align 8, !tbaa !4
  %8 = getelementptr inbounds nuw %struct.decContext, ptr %7, i32 0, i32 0
  %9 = load i32, ptr %8, align 4, !tbaa !33
  store i32 %9, ptr %6, align 4, !tbaa !8
  %10 = load i32, ptr %6, align 4, !tbaa !8
  %11 = load ptr, ptr %3, align 8, !tbaa !4
  %12 = getelementptr inbounds nuw %struct.decNumber, ptr %11, i32 0, i32 0
  store i32 %10, ptr %12, align 4, !tbaa !18
  %13 = load ptr, ptr %3, align 8, !tbaa !4
  %14 = getelementptr inbounds nuw %struct.decNumber, ptr %13, i32 0, i32 3
  %15 = getelementptr inbounds [1 x i16], ptr %14, i64 0, i64 0
  store ptr %15, ptr %5, align 8, !tbaa !12
  br label %16

16:                                               ; preds = %32, %2
  %17 = load i32, ptr %6, align 4, !tbaa !8
  %18 = icmp sgt i32 %17, 3
  br i1 %18, label %19, label %21

19:                                               ; preds = %16
  %20 = load ptr, ptr %5, align 8, !tbaa !12
  store i16 999, ptr %20, align 2, !tbaa !14
  br label %29

21:                                               ; preds = %16
  %22 = load i32, ptr %6, align 4, !tbaa !8
  %23 = sext i32 %22 to i64
  %24 = getelementptr inbounds [10 x i32], ptr @DECPOWERS, i64 0, i64 %23
  %25 = load i32, ptr %24, align 4, !tbaa !8
  %26 = sub i32 %25, 1
  %27 = trunc i32 %26 to i16
  %28 = load ptr, ptr %5, align 8, !tbaa !12
  store i16 %27, ptr %28, align 2, !tbaa !14
  br label %35

29:                                               ; preds = %19
  %30 = load i32, ptr %6, align 4, !tbaa !8
  %31 = sub nsw i32 %30, 3
  store i32 %31, ptr %6, align 4, !tbaa !8
  br label %32

32:                                               ; preds = %29
  %33 = load ptr, ptr %5, align 8, !tbaa !12
  %34 = getelementptr inbounds nuw i16, ptr %33, i32 1
  store ptr %34, ptr %5, align 8, !tbaa !12
  br label %16

35:                                               ; preds = %21
  %36 = load ptr, ptr %3, align 8, !tbaa !4
  %37 = getelementptr inbounds nuw %struct.decNumber, ptr %36, i32 0, i32 2
  store i8 0, ptr %37, align 4, !tbaa !10
  %38 = load ptr, ptr %4, align 8, !tbaa !4
  %39 = getelementptr inbounds nuw %struct.decContext, ptr %38, i32 0, i32 1
  %40 = load i32, ptr %39, align 4, !tbaa !39
  %41 = load ptr, ptr %4, align 8, !tbaa !4
  %42 = getelementptr inbounds nuw %struct.decContext, ptr %41, i32 0, i32 0
  %43 = load i32, ptr %42, align 4, !tbaa !33
  %44 = sub nsw i32 %40, %43
  %45 = add nsw i32 %44, 1
  %46 = load ptr, ptr %3, align 8, !tbaa !4
  %47 = getelementptr inbounds nuw %struct.decNumber, ptr %46, i32 0, i32 1
  store i32 %45, ptr %47, align 4, !tbaa !19
  call void @llvm.lifetime.end.p0(i64 4, ptr %6) #7
  call void @llvm.lifetime.end.p0(i64 8, ptr %5) #7
  ret void
}

; Function Attrs: nounwind uwtable
define dso_local ptr @decNumberNextMinus(ptr noundef %0, ptr noundef %1, ptr noundef %2) #0 {
  %4 = alloca ptr, align 8
  %5 = alloca ptr, align 8
  %6 = alloca ptr, align 8
  %7 = alloca ptr, align 8
  %8 = alloca %struct.decNumber, align 4
  %9 = alloca %struct.decContext, align 4
  %10 = alloca i32, align 4
  %11 = alloca i32, align 4
  store ptr %0, ptr %5, align 8, !tbaa !4
  store ptr %1, ptr %6, align 8, !tbaa !4
  store ptr %2, ptr %7, align 8, !tbaa !4
  call void @llvm.lifetime.start.p0(i64 12, ptr %8) #7
  call void @llvm.lifetime.start.p0(i64 28, ptr %9) #7
  %12 = load ptr, ptr %7, align 8, !tbaa !4
  call void @llvm.memcpy.p0.p0.i64(ptr align 4 %9, ptr align 4 %12, i64 28, i1 false), !tbaa.struct !57
  call void @llvm.lifetime.start.p0(i64 4, ptr %10) #7
  store i32 0, ptr %10, align 4, !tbaa !8
  %13 = load ptr, ptr %6, align 8, !tbaa !4
  %14 = getelementptr inbounds nuw %struct.decNumber, ptr %13, i32 0, i32 2
  %15 = load i8, ptr %14, align 4, !tbaa !10
  %16 = zext i8 %15 to i32
  %17 = and i32 %16, 192
  %18 = icmp eq i32 %17, 64
  br i1 %18, label %19, label %23

19:                                               ; preds = %3
  %20 = load ptr, ptr %5, align 8, !tbaa !4
  %21 = load ptr, ptr %7, align 8, !tbaa !4
  call void @decSetMaxValue(ptr noundef %20, ptr noundef %21)
  %22 = load ptr, ptr %5, align 8, !tbaa !4
  store ptr %22, ptr %4, align 8
  store i32 1, ptr %11, align 4
  br label %42

23:                                               ; preds = %3
  %24 = call ptr @decNumberZero(ptr noundef %8)
  %25 = getelementptr inbounds nuw %struct.decNumber, ptr %8, i32 0, i32 3
  %26 = getelementptr inbounds [1 x i16], ptr %25, i64 0, i64 0
  store i16 1, ptr %26, align 2, !tbaa !14
  %27 = getelementptr inbounds nuw %struct.decNumber, ptr %8, i32 0, i32 1
  store i32 -1000000000, ptr %27, align 4, !tbaa !19
  %28 = getelementptr inbounds nuw %struct.decContext, ptr %9, i32 0, i32 3
  store i32 6, ptr %28, align 4, !tbaa !45
  %29 = load ptr, ptr %5, align 8, !tbaa !4
  %30 = load ptr, ptr %6, align 8, !tbaa !4
  %31 = call ptr @decAddOp(ptr noundef %29, ptr noundef %30, ptr noundef %8, ptr noundef %9, i8 noundef zeroext -128, ptr noundef %10)
  %32 = load i32, ptr %10, align 4, !tbaa !8
  %33 = and i32 %32, 1073741952
  store i32 %33, ptr %10, align 4, !tbaa !8
  %34 = load i32, ptr %10, align 4, !tbaa !8
  %35 = icmp ne i32 %34, 0
  br i1 %35, label %36, label %40

36:                                               ; preds = %23
  %37 = load ptr, ptr %5, align 8, !tbaa !4
  %38 = load i32, ptr %10, align 4, !tbaa !8
  %39 = load ptr, ptr %7, align 8, !tbaa !4
  call void @decStatus(ptr noundef %37, i32 noundef %38, ptr noundef %39)
  br label %40

40:                                               ; preds = %36, %23
  %41 = load ptr, ptr %5, align 8, !tbaa !4
  store ptr %41, ptr %4, align 8
  store i32 1, ptr %11, align 4
  br label %42

42:                                               ; preds = %40, %19
  call void @llvm.lifetime.end.p0(i64 4, ptr %10) #7
  call void @llvm.lifetime.end.p0(i64 28, ptr %9) #7
  call void @llvm.lifetime.end.p0(i64 12, ptr %8) #7
  %43 = load ptr, ptr %4, align 8
  ret ptr %43
}