; Function Attrs: nounwind uwtable
define dso_local noundef ptr @decNumberNextMinus(ptr noundef returned %0, ptr noundef captures(address) %1, ptr noundef %2) local_unnamed_addr #4 {
  %4 = alloca %struct.decNumber, align 4
  %5 = alloca %struct.decContext, align 4
  %6 = alloca i32, align 4
  call void @llvm.lifetime.start.p0(i64 12, ptr nonnull %4) #18
  call void @llvm.lifetime.start.p0(i64 28, ptr nonnull %5) #18
  call void @llvm.memcpy.p0.p0.i64(ptr noundef nonnull align 4 dereferenceable(28) %5, ptr noundef nonnull align 4 dereferenceable(28) %2, i64 28, i1 false), !tbaa.struct !46
  call void @llvm.lifetime.start.p0(i64 4, ptr nonnull %6) #18
  store i32 0, ptr %6, align 4, !tbaa !16
  %7 = getelementptr inbounds nuw i8, ptr %1, i64 8
  %8 = load i8, ptr %7, align 4, !tbaa !4
  %9 = and i8 %8, -64
  %10 = icmp eq i8 %9, 64
  br i1 %10, label %11, label %28

11:                                               ; preds = %3
  %12 = load i32, ptr %2, align 4, !tbaa !25
  store i32 %12, ptr %0, align 4, !tbaa !10
  %13 = getelementptr inbounds nuw i8, ptr %0, i64 10
  %14 = icmp sgt i32 %12, 3
  br i1 %14, label %.lr.ph.i, label %decSetMaxValue.exit

.lr.ph.i:                                         ; preds = %11, %.lr.ph.i
  %.015.i = phi i32 [ %15, %.lr.ph.i ], [ %12, %11 ]
  %.01314.i = phi ptr [ %16, %.lr.ph.i ], [ %13, %11 ]
  store i16 999, ptr %.01314.i, align 2, !tbaa !11
  %15 = add nsw i32 %.015.i, -3
  %16 = getelementptr inbounds nuw i8, ptr %.01314.i, i64 2
  %17 = icmp samesign ugt i32 %.015.i, 6
  br i1 %17, label %.lr.ph.i, label %decSetMaxValue.exit

decSetMaxValue.exit:                              ; preds = %.lr.ph.i, %11
  %.013.lcssa.i = phi ptr [ %13, %11 ], [ %16, %.lr.ph.i ]
  %.0.lcssa.i = phi i32 [ %12, %11 ], [ %15, %.lr.ph.i ]
  %18 = sext i32 %.0.lcssa.i to i64
  %19 = getelementptr inbounds [10 x i32], ptr @DECPOWERS, i64 0, i64 %18
  %20 = load i32, ptr %19, align 4, !tbaa !16
  %21 = trunc i32 %20 to i16
  %22 = add i16 %21, -1
  store i16 %22, ptr %.013.lcssa.i, align 2, !tbaa !11
  %23 = getelementptr inbounds nuw i8, ptr %0, i64 8
  store i8 0, ptr %23, align 4, !tbaa !4
  %24 = getelementptr inbounds nuw i8, ptr %2, i64 4
  %25 = load i32, ptr %24, align 4, !tbaa !31
  %reass.sub = sub i32 %25, %12
  %26 = add i32 %reass.sub, 1
  %27 = getelementptr inbounds nuw i8, ptr %0, i64 4
  store i32 %26, ptr %27, align 4, !tbaa !9
  br label %45

28:                                               ; preds = %3
  %29 = getelementptr inbounds nuw i8, ptr %4, i64 8
  store i8 0, ptr %29, align 4, !tbaa !4
  %30 = getelementptr inbounds nuw i8, ptr %4, i64 4
  store i32 1, ptr %4, align 4, !tbaa !10
  %31 = getelementptr inbounds nuw i8, ptr %4, i64 10
  store i16 1, ptr %31, align 2, !tbaa !11
  store i32 -1000000000, ptr %30, align 4, !tbaa !9
  %32 = getelementptr inbounds nuw i8, ptr %5, i64 12
  store i32 6, ptr %32, align 4, !tbaa !35
  %33 = call fastcc ptr @decAddOp(ptr noundef %0, ptr noundef nonnull %1, ptr noundef nonnull %4, ptr noundef nonnull %5, i8 noundef zeroext -128, ptr noundef %6)
  %34 = load i32, ptr %6, align 4, !tbaa !16
  %35 = and i32 %34, 1073741952
  %.not = icmp eq i32 %35, 0
  br i1 %.not, label %45, label %36

36:                                               ; preds = %28
  %37 = and i32 %34, 128
  %.not.i = icmp eq i32 %37, 0
  br i1 %.not.i, label %decStatus.exit, label %38

38:                                               ; preds = %36
  %39 = and i32 %34, 1073741824
  %.not6.i = icmp eq i32 %39, 0
  br i1 %.not6.i, label %40, label %decStatus.exit

40:                                               ; preds = %38
  %41 = getelementptr inbounds nuw i8, ptr %0, i64 8
  %42 = getelementptr inbounds nuw i8, ptr %0, i64 4
  store i32 0, ptr %42, align 4, !tbaa !9
  store i32 1, ptr %0, align 4, !tbaa !10
  %43 = getelementptr inbounds nuw i8, ptr %0, i64 10
  store i16 0, ptr %43, align 2, !tbaa !11
  store i8 32, ptr %41, align 4, !tbaa !4
  br label %decStatus.exit

decStatus.exit:                                   ; preds = %38, %36, %40
  %.0.i = phi i32 [ %35, %40 ], [ %35, %36 ], [ 128, %38 ]
  %44 = call ptr @decContextSetStatus(ptr noundef nonnull %2, i32 noundef %.0.i) #18
  br label %45

45:                                               ; preds = %28, %decStatus.exit, %decSetMaxValue.exit
  call void @llvm.lifetime.end.p0(i64 4, ptr nonnull %6) #18
  call void @llvm.lifetime.end.p0(i64 28, ptr nonnull %5) #18
  call void @llvm.lifetime.end.p0(i64 12, ptr nonnull %4) #18
  ret ptr %0
}